target datalayout = "e-m:e-p270:32:32-p271:32:32-p272:64:64-i64:64-i128:128-f80:128-n8:16:32:64-S128"
target triple = "x86_64-unknown-linux-gnu"

%"class.std::__shared_count" = type { ptr }
%"class.facebook::velox::exec::EvalCtx" = type { ptr, ptr, ptr, i8, i8, %"class.std::vector.15", %"class.std::shared_ptr.20", i8, i8, i8, ptr, %"class.std::shared_ptr.23" }
%"class.std::vector.15" = type { %"struct.std::_Vector_base.16" }
%"struct.std::_Vector_base.16" = type { %"struct.std::_Vector_base<std::shared_ptr<facebook::velox::BaseVector>, std::allocator<std::shared_ptr<facebook::velox::BaseVector>>>::_Vector_impl" }
%"struct.std::_Vector_base<std::shared_ptr<facebook::velox::BaseVector>, std::allocator<std::shared_ptr<facebook::velox::BaseVector>>>::_Vector_impl" = type { %"struct.std::_Vector_base<std::shared_ptr<facebook::velox::BaseVector>, std::allocator<std::shared_ptr<facebook::velox::BaseVector>>>::_Vector_impl_data" }
%"struct.std::_Vector_base<std::shared_ptr<facebook::velox::BaseVector>, std::allocator<std::shared_ptr<facebook::velox::BaseVector>>>::_Vector_impl_data" = type { ptr, ptr, ptr }
%"class.std::shared_ptr.20" = type { %"class.std::__shared_ptr.21" }
%"class.std::__shared_ptr.21" = type { ptr, %"class.std::__shared_count" }
%"class.std::shared_ptr.23" = type { %"class.std::__shared_ptr.24" }
%"class.std::__shared_ptr.24" = type { ptr, %"class.std::__shared_count" }
%class.anon.40 = type { ptr, ptr, ptr, ptr }
%"class.facebook::velox::core::ExecCtx" = type { ptr, ptr, i8, %"class.std::vector.92", %"class.std::vector.97", %"class.std::unique_ptr.102" }
%"class.std::vector.92" = type { %"struct.std::_Vector_base.93" }
%"struct.std::_Vector_base.93" = type { %"struct.std::_Vector_base<std::unique_ptr<facebook::velox::DecodedVector>, std::allocator<std::unique_ptr<facebook::velox::DecodedVector>>>::_Vector_impl" }
%"struct.std::_Vector_base<std::unique_ptr<facebook::velox::DecodedVector>, std::allocator<std::unique_ptr<facebook::velox::DecodedVector>>>::_Vector_impl" = type { %"struct.std::_Vector_base<std::unique_ptr<facebook::velox::DecodedVector>, std::allocator<std::unique_ptr<facebook::velox::DecodedVector>>>::_Vector_impl_data" }
%"struct.std::_Vector_base<std::unique_ptr<facebook::velox::DecodedVector>, std::allocator<std::unique_ptr<facebook::velox::DecodedVector>>>::_Vector_impl_data" = type { ptr, ptr, ptr }
%"class.std::vector.97" = type { %"struct.std::_Vector_base.98" }
%"struct.std::_Vector_base.98" = type { %"struct.std::_Vector_base<std::unique_ptr<facebook::velox::SelectivityVector>, std::allocator<std::unique_ptr<facebook::velox::SelectivityVector>>>::_Vector_impl" }
%"struct.std::_Vector_base<std::unique_ptr<facebook::velox::SelectivityVector>, std::allocator<std::unique_ptr<facebook::velox::SelectivityVector>>>::_Vector_impl" = type { %"struct.std::_Vector_base<std::unique_ptr<facebook::velox::SelectivityVector>, std::allocator<std::unique_ptr<facebook::velox::SelectivityVector>>>::_Vector_impl_data" }
%"struct.std::_Vector_base<std::unique_ptr<facebook::velox::SelectivityVector>, std::allocator<std::unique_ptr<facebook::velox::SelectivityVector>>>::_Vector_impl_data" = type { ptr, ptr, ptr }
%"class.std::unique_ptr.102" = type { %"struct.std::__uniq_ptr_data.103" }
%"struct.std::__uniq_ptr_data.103" = type { %"class.std::__uniq_ptr_impl.104" }
%"class.std::__uniq_ptr_impl.104" = type { %"class.std::tuple.105" }
%"class.std::tuple.105" = type { %"struct.std::_Tuple_impl.106" }
%"struct.std::_Tuple_impl.106" = type { %"struct.std::_Head_base.109" }
%"struct.std::_Head_base.109" = type { ptr }

; Function Attrs: mustprogress nounwind uwtable
define linkonce_odr noundef nonnull align 8 dereferenceable(8) ptr @_ZNSt10_Head_baseILm0EPN8facebook5velox10VectorPoolELb0EE7_M_headERKS4_(ptr noundef nonnull align 8 dereferenceable(8) %__b) #1 comdat align 2 {
entry:
  %__b.addr = alloca ptr, align 8
  store ptr %__b, ptr %__b.addr, align 8
  %0 = load ptr, ptr %__b.addr, align 8
  %_M_head_impl = getelementptr inbounds %"struct.std::_Head_base.109", ptr %0, i32 0, i32 0
  ret ptr %_M_head_impl
}

; Function Attrs: mustprogress nounwind uwtable
define linkonce_odr noundef nonnull align 8 dereferenceable(8) ptr @_ZNSt11_Tuple_implILm0EJPN8facebook5velox10VectorPoolESt14default_deleteIS2_EEE7_M_headERKS6_(ptr noundef nonnull align 8 dereferenceable(8) %__t) #1 comdat align 2 {
entry:
  %__t.addr = alloca ptr, align 8
  store ptr %__t, ptr %__t.addr, align 8
  %0 = load ptr, ptr %__t.addr, align 8
  %call = call noundef nonnull align 8 dereferenceable(8) ptr @_ZNSt10_Head_baseILm0EPN8facebook5velox10VectorPoolELb0EE7_M_headERKS4_(ptr noundef nonnull align 8 dereferenceable(8) %0) #4
  ret ptr %call
}

; Function Attrs: mustprogress nounwind uwtable
define linkonce_odr noundef nonnull align 8 dereferenceable(8) ptr @_ZSt12__get_helperILm0EPN8facebook5velox10VectorPoolEJSt14default_deleteIS2_EEERKT0_RKSt11_Tuple_implIXT_EJS6_DpT1_EE(ptr noundef nonnull align 8 dereferenceable(8) %__t) #1 comdat {
entry:
  %__t.addr = alloca ptr, align 8
  store ptr %__t, ptr %__t.addr, align 8
  %0 = load ptr, ptr %__t.addr, align 8
  %call = call noundef nonnull align 8 dereferenceable(8) ptr @_ZNSt11_Tuple_implILm0EJPN8facebook5velox10VectorPoolESt14default_deleteIS2_EEE7_M_headERKS6_(ptr noundef nonnull align 8 dereferenceable(8) %0) #4
  ret ptr %call
}

; Function Attrs: mustprogress nounwind uwtable
define linkonce_odr noundef nonnull align 8 dereferenceable(8) ptr @_ZSt3getILm0EJPN8facebook5velox10VectorPoolESt14default_deleteIS2_EEERKNSt13tuple_elementIXT_ESt5tupleIJDpT0_EEE4typeERKSA_(ptr noundef nonnull align 8 dereferenceable(8) %__t) #1 comdat {
entry:
  %__t.addr = alloca ptr, align 8
  store ptr %__t, ptr %__t.addr, align 8
  %0 = load ptr, ptr %__t.addr, align 8
  %call = call noundef nonnull align 8 dereferenceable(8) ptr @_ZSt12__get_helperILm0EPN8facebook5velox10VectorPoolEJSt14default_deleteIS2_EEERKT0_RKSt11_Tuple_implIXT_EJS6_DpT1_EE(ptr noundef nonnull align 8 dereferenceable(8) %0) #4
  ret ptr %call
}

; Function Attrs: mustprogress nounwind uwtable
define linkonce_odr noundef ptr @_ZNKSt15__uniq_ptr_implIN8facebook5velox10VectorPoolESt14default_deleteIS2_EE6_M_ptrEv(ptr noundef nonnull align 8 dereferenceable(8) %this) #1 comdat align 2 {
entry:
  %this.addr = alloca ptr, align 8
  store ptr %this, ptr %this.addr, align 8
  %this1 = load ptr, ptr %this.addr, align 8
  %_M_t = getelementptr inbounds %"class.std::__uniq_ptr_impl.104", ptr %this1, i32 0, i32 0
  %call = call noundef nonnull align 8 dereferenceable(8) ptr @_ZSt3getILm0EJPN8facebook5velox10VectorPoolESt14default_deleteIS2_EEERKNSt13tuple_elementIXT_ESt5tupleIJDpT0_EEE4typeERKSA_(ptr noundef nonnull align 8 dereferenceable(8) %_M_t) #4
  %0 = load ptr, ptr %call, align 8
  ret ptr %0
}

; Function Attrs: mustprogress nounwind uwtable
define linkonce_odr noundef ptr @_ZNKSt10unique_ptrIN8facebook5velox10VectorPoolESt14default_deleteIS2_EE3getEv(ptr noundef nonnull align 8 dereferenceable(8) %this) #1 comdat align 2 {
entry:
  %this.addr = alloca ptr, align 8
  store ptr %this, ptr %this.addr, align 8
  %this1 = load ptr, ptr %this.addr, align 8
  %_M_t = getelementptr inbounds %"class.std::unique_ptr.102", ptr %this1, i32 0, i32 0
  %call = call noundef ptr @_ZNKSt15__uniq_ptr_implIN8facebook5velox10VectorPoolESt14default_deleteIS2_EE6_M_ptrEv(ptr noundef nonnull align 8 dereferenceable(8) %_M_t) #4
  ret ptr %call
}

; Function Attrs: mustprogress nounwind uwtable
define linkonce_odr noundef ptr @_ZN8facebook5velox4core7ExecCtx10vectorPoolEv(ptr noundef nonnull align 8 dereferenceable(80) %this) #1 comdat align 2 {
entry:
  %this.addr = alloca ptr, align 8
  store ptr %this, ptr %this.addr, align 8
  %this1 = load ptr, ptr %this.addr, align 8
  %vectorPool_ = getelementptr inbounds %"class.facebook::velox::core::ExecCtx", ptr %this1, i32 0, i32 5
  %call = call noundef ptr @_ZNKSt10unique_ptrIN8facebook5velox10VectorPoolESt14default_deleteIS2_EE3getEv(ptr noundef nonnull align 8 dereferenceable(8) %vectorPool_) #4
  ret ptr %call
}

; Function Attrs: mustprogress nounwind uwtable
define linkonce_odr noundef ptr @_ZNK8facebook5velox4core7ExecCtx4poolEv(ptr noundef nonnull align 8 dereferenceable(80) %this) #1 comdat align 2 {
entry:
  %this.addr = alloca ptr, align 8
  store ptr %this, ptr %this.addr, align 8
  %this1 = load ptr, ptr %this.addr, align 8
  %pool_ = getelementptr inbounds %"class.facebook::velox::core::ExecCtx", ptr %this1, i32 0, i32 0
  %0 = load ptr, ptr %pool_, align 8
  ret ptr %0
}

; Function Attrs: mustprogress uwtable
define linkonce_odr void @_ZN8facebook5velox4exec7EvalCtx14ensureWritableERKNS0_17SelectivityVectorERKSt10shared_ptrIKNS0_4TypeEERS6_INS0_10BaseVectorEE(ptr noundef nonnull align 8 dereferenceable(104) %this, ptr noundef nonnull align 8 dereferenceable(38) %rows, ptr noundef nonnull align 8 dereferenceable(16) %type, ptr noundef nonnull align 8 dereferenceable(16) %result) #0 comdat align 2 {
entry:
  %this.addr = alloca ptr, align 8
  %rows.addr = alloca ptr, align 8
  %type.addr = alloca ptr, align 8
  %result.addr = alloca ptr, align 8
  store ptr %this, ptr %this.addr, align 8
  store ptr %rows, ptr %rows.addr, align 8
  store ptr %type, ptr %type.addr, align 8
  store ptr %result, ptr %result.addr, align 8
  %this1 = load ptr, ptr %this.addr, align 8
  %0 = load ptr, ptr %rows.addr, align 8
  %1 = load ptr, ptr %type.addr, align 8
  %execCtx_ = getelementptr inbounds %"class.facebook::velox::exec::EvalCtx", ptr %this1, i32 0, i32 0
  %2 = load ptr, ptr %execCtx_, align 8
  %call = call noundef ptr @_ZNK8facebook5velox4core7ExecCtx4poolEv(ptr noundef nonnull align 8 dereferenceable(80) %2)
  %3 = load ptr, ptr %result.addr, align 8
  %execCtx_2 = getelementptr inbounds %"class.facebook::velox::exec::EvalCtx", ptr %this1, i32 0, i32 0
  %4 = load ptr, ptr %execCtx_2, align 8
  %call3 = call noundef ptr @_ZN8facebook5velox4core7ExecCtx10vectorPoolEv(ptr noundef nonnull align 8 dereferenceable(80) %4)
  call void @_ZN8facebook5velox10BaseVector14ensureWritableERKNS0_17SelectivityVectorERKSt10shared_ptrIKNS0_4TypeEEPNS0_6memory10MemoryPoolERS5_IS1_EPNS0_10VectorPoolE(ptr noundef nonnull align 8 dereferenceable(38) %0, ptr noundef nonnull align 8 dereferenceable(16) %1, ptr noundef %call, ptr noundef nonnull align 8 dereferenceable(16) %3, ptr noundef %call3)
  ret void
}

; Function Attrs: mustprogress uwtable
define void @_ZNK8facebook5velox16JsonCastOperator8castFromERKNS0_10BaseVectorERNS0_4exec7EvalCtxERKNS0_17SelectivityVectorERKSt10shared_ptrIKNS0_4TypeEERSB_IS2_E(ptr noundef nonnull align 8 dereferenceable(8) %this, ptr noundef nonnull align 8 dereferenceable(99) %input, ptr noundef nonnull align 8 dereferenceable(104) %context, ptr noundef nonnull align 8 dereferenceable(38) %rows, ptr noundef nonnull align 8 dereferenceable(16) %resultType, ptr noundef nonnull align 8 dereferenceable(16) %result) unnamed_addr #0 align 2 {
entry:
  %this.addr = alloca ptr, align 8
  %input.addr = alloca ptr, align 8
  %context.addr = alloca ptr, align 8
  %rows.addr = alloca ptr, align 8
  %resultType.addr = alloca ptr, align 8
  %result.addr = alloca ptr, align 8
  %ref.tmp = alloca %class.anon.40, align 8
  store ptr %this, ptr %this.addr, align 8
  store ptr %input, ptr %input.addr, align 8
  store ptr %context, ptr %context.addr, align 8
  store ptr %rows, ptr %rows.addr, align 8
  store ptr %resultType, ptr %resultType.addr, align 8
  store ptr %result, ptr %result.addr, align 8
  %0 = load ptr, ptr %context.addr, align 8
  %1 = load ptr, ptr %rows.addr, align 8
  %2 = load ptr, ptr %resultType.addr, align 8
  %3 = load ptr, ptr %result.addr, align 8
  call void @_ZN8facebook5velox4exec7EvalCtx14ensureWritableERKNS0_17SelectivityVectorERKSt10shared_ptrIKNS0_4TypeEERS6_INS0_10BaseVectorEE(ptr noundef nonnull align 8 dereferenceable(104) %0, ptr noundef nonnull align 8 dereferenceable(38) %1, ptr noundef nonnull align 8 dereferenceable(16) %2, ptr noundef nonnull align 8 dereferenceable(16) %3)
  %4 = getelementptr inbounds %class.anon.40, ptr %ref.tmp, i32 0, i32 0
  %5 = load ptr, ptr %result.addr, align 8
  store ptr %5, ptr %4, align 8
  %6 = getelementptr inbounds %class.anon.40, ptr %ref.tmp, i32 0, i32 1
  %7 = load ptr, ptr %input.addr, align 8
  store ptr %7, ptr %6, align 8
  %8 = getelementptr inbounds %class.anon.40, ptr %ref.tmp, i32 0, i32 2
  %9 = load ptr, ptr %context.addr, align 8
  store ptr %9, ptr %8, align 8
  %10 = getelementptr inbounds %class.anon.40, ptr %ref.tmp, i32 0, i32 3
  %11 = load ptr, ptr %rows.addr, align 8
  store ptr %11, ptr %10, align 8
  call void @"_ZZNK8facebook5velox16JsonCastOperator8castFromERKNS0_10BaseVectorERNS0_4exec7EvalCtxERKNS0_17SelectivityVectorERKSt10shared_ptrIKNS0_4TypeEERSB_IS2_EENK3$_0clEv"(ptr noundef nonnull align 8 dereferenceable(32) %ref.tmp)
  ret void
}