; Function Attrs: mustprogress uwtable
define void @_ZNK8facebook5velox16JsonCastOperator8castFromERKNS0_10BaseVectorERNS0_4exec7EvalCtxERKNS0_17SelectivityVectorERKSt10shared_ptrIKNS0_4TypeEERSB_IS2_E(ptr nocapture nonnull readnone align 8 %this, ptr noundef nonnull align 8 dereferenceable(99) %input, ptr noundef nonnull align 8 dereferenceable(104) %context, ptr noundef nonnull align 8 dereferenceable(38) %rows, ptr noundef nonnull align 8 dereferenceable(16) %resultType, ptr noundef nonnull align 8 dereferenceable(16) %result) unnamed_addr #0 align 2 {
entry:
  %ref.tmp = alloca %class.anon.40, align 8
  %0 = load ptr, ptr %context, align 8
  %1 = load ptr, ptr %0, align 8
  %vectorPool_.i.i = getelementptr inbounds i8, ptr %0, i64 72
  %2 = load ptr, ptr %vectorPool_.i.i, align 8
  tail call void @_ZN8facebook5velox10BaseVector14ensureWritableERKNS0_17SelectivityVectorERKSt10shared_ptrIKNS0_4TypeEEPNS0_6memory10MemoryPoolERS5_IS1_EPNS0_10VectorPoolE(ptr noundef nonnull align 8 dereferenceable(38) %rows, ptr noundef nonnull align 8 dereferenceable(16) %resultType, ptr noundef %1, ptr noundef nonnull align 8 dereferenceable(16) %result, ptr noundef %2)
  store ptr %result, ptr %ref.tmp, align 8
  %3 = getelementptr inbounds i8, ptr %ref.tmp, i64 8
  store ptr %input, ptr %3, align 8
  %4 = getelementptr inbounds i8, ptr %ref.tmp, i64 16
  store ptr %context, ptr %4, align 8
  %5 = getelementptr inbounds i8, ptr %ref.tmp, i64 24
  store ptr %rows, ptr %5, align 8
  call fastcc void @"_ZZNK8facebook5velox16JsonCastOperator8castFromERKNS0_10BaseVectorERNS0_4exec7EvalCtxERKNS0_17SelectivityVectorERKSt10shared_ptrIKNS0_4TypeEERSB_IS2_EENK3$_0clEv"(ptr noundef nonnull align 8 dereferenceable(32) %ref.tmp)
  ret void
}